(lp0
(i__main__
Nota_Mastil
p1
(dp2
S'frec'
p3
cnumpy.core.multiarray
scalar
p4
(cnumpy
dtype
p5
(S'f8'
p6
I0
I1
tp7
Rp8
(I3
S'<'
p9
NNNI-1
I-1
I0
tp10
bS'\xd6\xdd\xba[w\xeb:@'
p11
tp12
Rp13
sS'cuerda'
p14
I1
sS'valid'
p15
I01
sS'traste'
p16
I8
sba(i__main__
Nota_Mastil
p17
(dp18
g3
g4
(g8
S'\x0c\x9e\xc13xF}@'
p19
tp20
Rp21
sg14
I3
sg15
I01
sg16
I11
sba.